target datalayout = "e-m:e-p270:32:32-p271:32:32-p272:64:64-i64:64-i128:128-f80:128-n8:16:32:64-S128"
target triple = "x86_64-unknown-linux-gnu"

%"class.arrow::io::OutputStream.base" = type { %"class.arrow::io::Writable" }
%"class.arrow::io::Writable" = type { ptr }
%"class.std::__shared_count" = type { ptr }
%"class.arrow::io::FileInterface.base" = type <{ ptr, %"class.std::enable_shared_from_this", i32 }>
%"class.std::enable_shared_from_this" = type { %"class.std::weak_ptr" }
%"class.std::weak_ptr" = type { %"class.std::__weak_ptr" }
%"class.std::__weak_ptr" = type { ptr, %"class.std::__weak_count" }
%"class.std::__weak_count" = type { ptr }
%"class.std::shared_ptr.0" = type { %"class.std::__shared_ptr.1" }
%"class.std::__shared_ptr.1" = type { ptr, %"class.std::__shared_count" }
%"class.arrow::io::FixedSizeBufferWriter" = type { %"class.arrow::io::WritableFile.base", %"class.std::unique_ptr.26", %"class.arrow::io::FileInterface.base" }
%"class.arrow::io::WritableFile.base" = type { %"class.arrow::io::OutputStream.base", %"class.arrow::io::Seekable" }
%"class.arrow::io::Seekable" = type { ptr }
%"class.std::unique_ptr.26" = type { %"struct.std::__uniq_ptr_data.27" }
%"struct.std::__uniq_ptr_data.27" = type { %"class.std::__uniq_ptr_impl.28" }
%"class.std::__uniq_ptr_impl.28" = type { %"class.std::tuple.29" }
%"class.std::tuple.29" = type { %"struct.std::_Tuple_impl.30" }
%"struct.std::_Tuple_impl.30" = type { %"struct.std::_Head_base.33" }
%"struct.std::_Head_base.33" = type { ptr }
%"class.arrow::io::FixedSizeBufferWriter::FixedSizeBufferWriterImpl" = type { %"class.std::mutex", %"class.std::shared_ptr.0", ptr, i64, i64, i8, i32, i64, i64 }
%"class.std::mutex" = type { %"class.std::__mutex_base" }
%"class.std::__mutex_base" = type { %union.pthread_mutex_t }
%union.pthread_mutex_t = type { %struct.__pthread_mutex_s }
%struct.__pthread_mutex_s = type { i32, i32, i32, i32, i32, i16, i16, %struct.__pthread_internal_list }
%struct.__pthread_internal_list = type { ptr, ptr }

; Function Attrs: mustprogress nounwind uwtable
define linkonce_odr noundef nonnull align 8 dereferenceable(8) ptr @_ZNSt10_Head_baseILm0EPN5arrow2io21FixedSizeBufferWriter25FixedSizeBufferWriterImplELb0EE7_M_headERKS5_(ptr noundef nonnull align 8 dereferenceable(8) %__b) #0 comdat align 2 {
entry:
  %__b.addr = alloca ptr, align 8
  store ptr %__b, ptr %__b.addr, align 8
  %0 = load ptr, ptr %__b.addr, align 8
  %_M_head_impl = getelementptr inbounds %"struct.std::_Head_base.33", ptr %0, i32 0, i32 0
  ret ptr %_M_head_impl
}

; Function Attrs: mustprogress nounwind uwtable
define linkonce_odr noundef nonnull align 8 dereferenceable(8) ptr @_ZNSt11_Tuple_implILm0EJPN5arrow2io21FixedSizeBufferWriter25FixedSizeBufferWriterImplESt14default_deleteIS3_EEE7_M_headERKS7_(ptr noundef nonnull align 8 dereferenceable(8) %__t) #0 comdat align 2 {
entry:
  %__t.addr = alloca ptr, align 8
  store ptr %__t, ptr %__t.addr, align 8
  %0 = load ptr, ptr %__t.addr, align 8
  %call = call noundef nonnull align 8 dereferenceable(8) ptr @_ZNSt10_Head_baseILm0EPN5arrow2io21FixedSizeBufferWriter25FixedSizeBufferWriterImplELb0EE7_M_headERKS5_(ptr noundef nonnull align 8 dereferenceable(8) %0) #13
  ret ptr %call
}

; Function Attrs: mustprogress nounwind uwtable
define linkonce_odr noundef nonnull align 8 dereferenceable(8) ptr @_ZSt12__get_helperILm0EPN5arrow2io21FixedSizeBufferWriter25FixedSizeBufferWriterImplEJSt14default_deleteIS3_EEERKT0_RKSt11_Tuple_implIXT_EJS7_DpT1_EE(ptr noundef nonnull align 8 dereferenceable(8) %__t) #0 comdat {
entry:
  %__t.addr = alloca ptr, align 8
  store ptr %__t, ptr %__t.addr, align 8
  %0 = load ptr, ptr %__t.addr, align 8
  %call = call noundef nonnull align 8 dereferenceable(8) ptr @_ZNSt11_Tuple_implILm0EJPN5arrow2io21FixedSizeBufferWriter25FixedSizeBufferWriterImplESt14default_deleteIS3_EEE7_M_headERKS7_(ptr noundef nonnull align 8 dereferenceable(8) %0) #13
  ret ptr %call
}

; Function Attrs: mustprogress nounwind uwtable
define linkonce_odr noundef nonnull align 8 dereferenceable(8) ptr @_ZSt3getILm0EJPN5arrow2io21FixedSizeBufferWriter25FixedSizeBufferWriterImplESt14default_deleteIS3_EEERKNSt13tuple_elementIXT_ESt5tupleIJDpT0_EEE4typeERKSB_(ptr noundef nonnull align 8 dereferenceable(8) %__t) #0 comdat {
entry:
  %__t.addr = alloca ptr, align 8
  store ptr %__t, ptr %__t.addr, align 8
  %0 = load ptr, ptr %__t.addr, align 8
  %call = call noundef nonnull align 8 dereferenceable(8) ptr @_ZSt12__get_helperILm0EPN5arrow2io21FixedSizeBufferWriter25FixedSizeBufferWriterImplEJSt14default_deleteIS3_EEERKT0_RKSt11_Tuple_implIXT_EJS7_DpT1_EE(ptr noundef nonnull align 8 dereferenceable(8) %0) #13
  ret ptr %call
}

; Function Attrs: mustprogress nounwind uwtable
define linkonce_odr noundef ptr @_ZNKSt15__uniq_ptr_implIN5arrow2io21FixedSizeBufferWriter25FixedSizeBufferWriterImplESt14default_deleteIS3_EE6_M_ptrEv(ptr noundef nonnull align 8 dereferenceable(8) %this) #0 comdat align 2 {
entry:
  %this.addr = alloca ptr, align 8
  store ptr %this, ptr %this.addr, align 8
  %this1 = load ptr, ptr %this.addr, align 8
  %_M_t = getelementptr inbounds %"class.std::__uniq_ptr_impl.28", ptr %this1, i32 0, i32 0
  %call = call noundef nonnull align 8 dereferenceable(8) ptr @_ZSt3getILm0EJPN5arrow2io21FixedSizeBufferWriter25FixedSizeBufferWriterImplESt14default_deleteIS3_EEERKNSt13tuple_elementIXT_ESt5tupleIJDpT0_EEE4typeERKSB_(ptr noundef nonnull align 8 dereferenceable(8) %_M_t) #13
  %0 = load ptr, ptr %call, align 8
  ret ptr %0
}

; Function Attrs: mustprogress nounwind uwtable
define linkonce_odr noundef ptr @_ZNKSt10unique_ptrIN5arrow2io21FixedSizeBufferWriter25FixedSizeBufferWriterImplESt14default_deleteIS3_EE3getEv(ptr noundef nonnull align 8 dereferenceable(8) %this) #0 comdat align 2 {
entry:
  %this.addr = alloca ptr, align 8
  store ptr %this, ptr %this.addr, align 8
  %this1 = load ptr, ptr %this.addr, align 8
  %_M_t = getelementptr inbounds %"class.std::unique_ptr.26", ptr %this1, i32 0, i32 0
  %call = call noundef ptr @_ZNKSt15__uniq_ptr_implIN5arrow2io21FixedSizeBufferWriter25FixedSizeBufferWriterImplESt14default_deleteIS3_EE6_M_ptrEv(ptr noundef nonnull align 8 dereferenceable(8) %_M_t) #13
  ret ptr %call
}

; Function Attrs: mustprogress nounwind uwtable
define linkonce_odr noundef zeroext i1 @_ZNK5arrow2io21FixedSizeBufferWriter25FixedSizeBufferWriterImpl6closedEv(ptr noundef nonnull align 8 dereferenceable(104) %this) #0 comdat align 2 {
entry:
  %this.addr = alloca ptr, align 8
  store ptr %this, ptr %this.addr, align 8
  %this1 = load ptr, ptr %this.addr, align 8
  %is_open_ = getelementptr inbounds %"class.arrow::io::FixedSizeBufferWriter::FixedSizeBufferWriterImpl", ptr %this1, i32 0, i32 5
  %0 = load i8, ptr %is_open_, align 8
  %tobool = trunc i8 %0 to i1
  %lnot = xor i1 %tobool, true
  ret i1 %lnot
}

; Function Attrs: mustprogress nounwind uwtable
define linkonce_odr noundef ptr @_ZNKSt10unique_ptrIN5arrow2io21FixedSizeBufferWriter25FixedSizeBufferWriterImplESt14default_deleteIS3_EEptEv(ptr noundef nonnull align 8 dereferenceable(8) %this) #0 comdat align 2 {
entry:
  %this.addr = alloca ptr, align 8
  store ptr %this, ptr %this.addr, align 8
  %this1 = load ptr, ptr %this.addr, align 8
  %call = call noundef ptr @_ZNKSt10unique_ptrIN5arrow2io21FixedSizeBufferWriter25FixedSizeBufferWriterImplESt14default_deleteIS3_EE3getEv(ptr noundef nonnull align 8 dereferenceable(8) %this1) #13
  ret ptr %call
}

; Function Attrs: mustprogress uwtable
define noundef zeroext i1 @_ZNK5arrow2io21FixedSizeBufferWriter6closedEv(ptr noundef nonnull align 8 dereferenceable(24) %this) unnamed_addr #1 align 2 {
entry:
  %this.addr = alloca ptr, align 8
  store ptr %this, ptr %this.addr, align 8
  %this1 = load ptr, ptr %this.addr, align 8
  %impl_ = getelementptr inbounds %"class.arrow::io::FixedSizeBufferWriter", ptr %this1, i32 0, i32 1
  %call = call noundef ptr @_ZNKSt10unique_ptrIN5arrow2io21FixedSizeBufferWriter25FixedSizeBufferWriterImplESt14default_deleteIS3_EEptEv(ptr noundef nonnull align 8 dereferenceable(8) %impl_) #13
  %call2 = call noundef zeroext i1 @_ZNK5arrow2io21FixedSizeBufferWriter25FixedSizeBufferWriterImpl6closedEv(ptr noundef nonnull align 8 dereferenceable(104) %call)
  ret i1 %call2
}

; Function Attrs: uwtable
define noundef zeroext i1 @_ZTv0_n64_NK5arrow2io21FixedSizeBufferWriter6closedEv(ptr noundef %this) unnamed_addr #8 align 2 {
entry:
  %this.addr = alloca ptr, align 8
  store ptr %this, ptr %this.addr, align 8
  %this1 = load ptr, ptr %this.addr, align 8
  %0 = load ptr, ptr %this1, align 8
  %1 = getelementptr inbounds i8, ptr %0, i64 -64
  %2 = load i64, ptr %1, align 8
  %3 = getelementptr inbounds i8, ptr %this1, i64 %2
  %call = tail call noundef zeroext i1 @_ZNK5arrow2io21FixedSizeBufferWriter6closedEv(ptr noundef nonnull align 8 dereferenceable(24) %3)
  ret i1 %call
}