; Function Attrs: mustprogress nofree norecurse nosync nounwind willreturn memory(read, inaccessiblemem: none) uwtable
define noundef zeroext i1 @_ZTv0_n64_NK5arrow2io21FixedSizeBufferWriter6closedEv(ptr nocapture noundef readonly %this) unnamed_addr #13 align 2 {
entry:
  %0 = load ptr, ptr %this, align 8
  %1 = getelementptr inbounds i8, ptr %0, i64 -64
  %2 = load i64, ptr %1, align 8
  %3 = getelementptr inbounds i8, ptr %this, i64 %2
  %impl_.i = getelementptr inbounds i8, ptr %3, i64 16
  %4 = load ptr, ptr %impl_.i, align 8
  %is_open_.i.i = getelementptr inbounds i8, ptr %4, i64 80
  %5 = load i8, ptr %is_open_.i.i, align 8
  %6 = and i8 %5, 1
  %tobool.not.i.i = icmp eq i8 %6, 0
  ret i1 %tobool.not.i.i
}